; Function Attrs: mustprogress nofree norecurse nosync nounwind willreturn memory(argmem: read) uwtable
define hidden noundef range(i64 -262144, 262144) i64 @_ZN4LIEF5MachO7details20sign_extended_addendERKNS1_28dyld_chained_ptr_arm64e_bindE(ptr noundef nonnull readonly align 8 captures(none) dereferenceable(8) %0) local_unnamed_addr #1 {
  %2 = load i64, ptr %0, align 8
  %3 = lshr i64 %2, 32
  %4 = and i64 %2, 1125899906842624
  %.not = icmp eq i64 %4, 0
  %5 = and i64 %3, 262143
  %masksel = select i1 %.not, i64 0, i64 -262144
  %.0 = or disjoint i64 %masksel, %5
  ret i64 %.0
}